target datalayout = "e-m:e-p270:32:32-p271:32:32-p272:64:64-i64:64-i128:128-f80:128-n8:16:32:64-S128"
target triple = "x86_64-unknown-linux-gnu"

%struct.HashMap = type { ptr, i32, i32 }
%struct.Scope = type { ptr, %struct.HashMap, %struct.HashMap }
%struct.Token = type { i32, ptr, i64, x86_fp80, ptr, i32, ptr, ptr, ptr, ptr, i32, i32, i8, i8, ptr, ptr }
%struct.VarAttr = type { i8, i8, i8, i8, i8, i32 }
%struct.Obj = type { ptr, ptr, ptr, ptr, i8, i32, i32, i8, i8, i8, i8, i8, ptr, ptr, i8, ptr, ptr, ptr, ptr, ptr, i32, i8, i8, %struct.StringArray }
%struct.StringArray = type { ptr, i32, i32 }
%struct.Type = type { i32, i32, i32, i8, i8, ptr, ptr, ptr, ptr, i32, ptr, ptr, ptr, i8, i8, ptr, ptr, i8, ptr }
%struct.VarScope = type { ptr, ptr, ptr, i32 }
%struct.Relocation = type { ptr, i32, ptr, i64 }

@globals = internal global ptr null, align 8
@scope = internal global ptr @.compoundliteral, align 8
@.str.57 = private unnamed_addr constant [2 x i8] c",\00", align 1
@.str.66 = private unnamed_addr constant [23 x i8] c"expected an identifier\00", align 1
@.str.76 = private unnamed_addr constant [2 x i8] c"=\00", align 1
@.str.99 = private unnamed_addr constant [2 x i8] c";\00", align 1
@.str.101 = private unnamed_addr constant [22 x i8] c"variable name omitted\00", align 1

; Function Attrs: nounwind uwtable
define internal ptr @push_scope(ptr noundef %name) #0 {
entry:
  %name.addr = alloca ptr, align 8
  %sc = alloca ptr, align 8
  store ptr %name, ptr %name.addr, align 8
  %call = call noalias ptr @calloc(i64 noundef 1, i64 noundef 32) #8
  store ptr %call, ptr %sc, align 8
  %0 = load ptr, ptr @scope, align 8
  %vars = getelementptr inbounds %struct.Scope, ptr %0, i32 0, i32 1
  %1 = load ptr, ptr %name.addr, align 8
  %2 = load ptr, ptr %sc, align 8
  call void @hashmap_put(ptr noundef %vars, ptr noundef %1, ptr noundef %2)
  %3 = load ptr, ptr %sc, align 8
  ret ptr %3
}

; Function Attrs: nounwind uwtable
define internal ptr @new_var(ptr noundef %name, ptr noundef %ty) #0 {
entry:
  %name.addr = alloca ptr, align 8
  %ty.addr = alloca ptr, align 8
  %var = alloca ptr, align 8
  store ptr %name, ptr %name.addr, align 8
  store ptr %ty, ptr %ty.addr, align 8
  %call = call noalias ptr @calloc(i64 noundef 1, i64 noundef 144) #8
  store ptr %call, ptr %var, align 8
  %0 = load ptr, ptr %name.addr, align 8
  %1 = load ptr, ptr %var, align 8
  %name1 = getelementptr inbounds %struct.Obj, ptr %1, i32 0, i32 1
  store ptr %0, ptr %name1, align 8
  %2 = load ptr, ptr %ty.addr, align 8
  %3 = load ptr, ptr %var, align 8
  %ty2 = getelementptr inbounds %struct.Obj, ptr %3, i32 0, i32 2
  store ptr %2, ptr %ty2, align 8
  %4 = load ptr, ptr %ty.addr, align 8
  %align = getelementptr inbounds %struct.Type, ptr %4, i32 0, i32 2
  %5 = load i32, ptr %align, align 8
  %6 = load ptr, ptr %var, align 8
  %align3 = getelementptr inbounds %struct.Obj, ptr %6, i32 0, i32 5
  store i32 %5, ptr %align3, align 4
  %7 = load ptr, ptr %var, align 8
  %8 = load ptr, ptr %name.addr, align 8
  %call4 = call ptr @push_scope(ptr noundef %8)
  %var5 = getelementptr inbounds %struct.VarScope, ptr %call4, i32 0, i32 0
  store ptr %7, ptr %var5, align 8
  %9 = load ptr, ptr %var, align 8
  ret ptr %9
}

; Function Attrs: nounwind uwtable
define internal void @gvar_initializer(ptr noundef %rest, ptr noundef %tok, ptr noundef %var) #0 {
entry:
  %rest.addr = alloca ptr, align 8
  %tok.addr = alloca ptr, align 8
  %var.addr = alloca ptr, align 8
  %init = alloca ptr, align 8
  %head = alloca %struct.Relocation, align 8
  %buf = alloca ptr, align 8
  store ptr %rest, ptr %rest.addr, align 8
  store ptr %tok, ptr %tok.addr, align 8
  store ptr %var, ptr %var.addr, align 8
  %0 = load ptr, ptr %rest.addr, align 8
  %1 = load ptr, ptr %tok.addr, align 8
  %2 = load ptr, ptr %var.addr, align 8
  %ty = getelementptr inbounds %struct.Obj, ptr %2, i32 0, i32 2
  %3 = load ptr, ptr %ty, align 8
  %4 = load ptr, ptr %var.addr, align 8
  %ty1 = getelementptr inbounds %struct.Obj, ptr %4, i32 0, i32 2
  %call = call ptr @initializer(ptr noundef %0, ptr noundef %1, ptr noundef %3, ptr noundef %ty1)
  store ptr %call, ptr %init, align 8
  call void @llvm.memset.p0.i64(ptr align 8 %head, i8 0, i64 32, i1 false)
  %5 = load ptr, ptr %var.addr, align 8
  %ty2 = getelementptr inbounds %struct.Obj, ptr %5, i32 0, i32 2
  %6 = load ptr, ptr %ty2, align 8
  %size = getelementptr inbounds %struct.Type, ptr %6, i32 0, i32 1
  %7 = load i32, ptr %size, align 4
  %conv = sext i32 %7 to i64
  %call3 = call noalias ptr @calloc(i64 noundef 1, i64 noundef %conv) #8
  store ptr %call3, ptr %buf, align 8
  %8 = load ptr, ptr %init, align 8
  %9 = load ptr, ptr %var.addr, align 8
  %ty4 = getelementptr inbounds %struct.Obj, ptr %9, i32 0, i32 2
  %10 = load ptr, ptr %ty4, align 8
  %11 = load ptr, ptr %buf, align 8
  %call5 = call ptr @write_gvar_data(ptr noundef %head, ptr noundef %8, ptr noundef %10, ptr noundef %11, i32 noundef 0)
  %12 = load ptr, ptr %buf, align 8
  %13 = load ptr, ptr %var.addr, align 8
  %init_data = getelementptr inbounds %struct.Obj, ptr %13, i32 0, i32 12
  store ptr %12, ptr %init_data, align 8
  %next = getelementptr inbounds %struct.Relocation, ptr %head, i32 0, i32 0
  %14 = load ptr, ptr %next, align 8
  %15 = load ptr, ptr %var.addr, align 8
  %rel = getelementptr inbounds %struct.Obj, ptr %15, i32 0, i32 13
  store ptr %14, ptr %rel, align 8
  ret void
}

; Function Attrs: nounwind uwtable
define internal ptr @new_gvar(ptr noundef %name, ptr noundef %ty) #0 {
entry:
  %name.addr = alloca ptr, align 8
  %ty.addr = alloca ptr, align 8
  %var = alloca ptr, align 8
  store ptr %name, ptr %name.addr, align 8
  store ptr %ty, ptr %ty.addr, align 8
  %0 = load ptr, ptr %name.addr, align 8
  %1 = load ptr, ptr %ty.addr, align 8
  %call = call ptr @new_var(ptr noundef %0, ptr noundef %1)
  store ptr %call, ptr %var, align 8
  %2 = load ptr, ptr @globals, align 8
  %3 = load ptr, ptr %var, align 8
  %next = getelementptr inbounds %struct.Obj, ptr %3, i32 0, i32 0
  store ptr %2, ptr %next, align 8
  %4 = load ptr, ptr %var, align 8
  %is_static = getelementptr inbounds %struct.Obj, ptr %4, i32 0, i32 9
  store i8 1, ptr %is_static, align 2
  %5 = load ptr, ptr %var, align 8
  %is_definition = getelementptr inbounds %struct.Obj, ptr %5, i32 0, i32 8
  store i8 1, ptr %is_definition, align 1
  %6 = load ptr, ptr %var, align 8
  store ptr %6, ptr @globals, align 8
  %7 = load ptr, ptr %var, align 8
  ret ptr %7
}

; Function Attrs: nounwind uwtable
define internal ptr @get_ident(ptr noundef %tok) #0 {
entry:
  %tok.addr = alloca ptr, align 8
  store ptr %tok, ptr %tok.addr, align 8
  %0 = load ptr, ptr %tok.addr, align 8
  %kind = getelementptr inbounds %struct.Token, ptr %0, i32 0, i32 0
  %1 = load i32, ptr %kind, align 16
  %cmp = icmp ne i32 %1, 0
  br i1 %cmp, label %if.then, label %if.end

if.then:                                          ; preds = %entry
  %2 = load ptr, ptr %tok.addr, align 8
  call void (ptr, ptr, ...) @error_tok(ptr noundef %2, ptr noundef @.str.66) #9
  unreachable

if.end:                                           ; preds = %entry
  %3 = load ptr, ptr %tok.addr, align 8
  %loc = getelementptr inbounds %struct.Token, ptr %3, i32 0, i32 4
  %4 = load ptr, ptr %loc, align 16
  %5 = load ptr, ptr %tok.addr, align 8
  %len = getelementptr inbounds %struct.Token, ptr %5, i32 0, i32 5
  %6 = load i32, ptr %len, align 8
  %conv = sext i32 %6 to i64
  %call = call noalias ptr @strndup(ptr noundef %4, i64 noundef %conv) #11
  ret ptr %call
}

; Function Attrs: nounwind uwtable
define internal ptr @global_variable(ptr noundef %tok, ptr noundef %basety, ptr noundef %attr) #0 {
entry:
  %tok.addr = alloca ptr, align 8
  %basety.addr = alloca ptr, align 8
  %attr.addr = alloca ptr, align 8
  %first = alloca i8, align 1
  %ty = alloca ptr, align 8
  %var = alloca ptr, align 8
  store ptr %tok, ptr %tok.addr, align 8
  store ptr %basety, ptr %basety.addr, align 8
  store ptr %attr, ptr %attr.addr, align 8
  store i8 1, ptr %first, align 1
  br label %while.cond

while.cond:                                       ; preds = %if.end30, %entry
  %0 = load ptr, ptr %tok.addr, align 8
  %call = call zeroext i1 @consume(ptr noundef %tok.addr, ptr noundef %0, ptr noundef @.str.99)
  %lnot = xor i1 %call, true
  br i1 %lnot, label %while.body, label %while.end

while.body:                                       ; preds = %while.cond
  %1 = load i8, ptr %first, align 1
  %tobool = trunc i8 %1 to i1
  br i1 %tobool, label %if.end, label %if.then

if.then:                                          ; preds = %while.body
  %2 = load ptr, ptr %tok.addr, align 8
  %call1 = call ptr @skip(ptr noundef %2, ptr noundef @.str.57)
  store ptr %call1, ptr %tok.addr, align 8
  br label %if.end

if.end:                                           ; preds = %if.then, %while.body
  store i8 0, ptr %first, align 1
  %3 = load ptr, ptr %tok.addr, align 8
  %4 = load ptr, ptr %basety.addr, align 8
  %call2 = call ptr @declarator(ptr noundef %tok.addr, ptr noundef %3, ptr noundef %4)
  store ptr %call2, ptr %ty, align 8
  %5 = load ptr, ptr %ty, align 8
  %name = getelementptr inbounds %struct.Type, ptr %5, i32 0, i32 7
  %6 = load ptr, ptr %name, align 8
  %tobool3 = icmp ne ptr %6, null
  br i1 %tobool3, label %if.end5, label %if.then4

if.then4:                                         ; preds = %if.end
  %7 = load ptr, ptr %ty, align 8
  %name_pos = getelementptr inbounds %struct.Type, ptr %7, i32 0, i32 8
  %8 = load ptr, ptr %name_pos, align 8
  call void (ptr, ptr, ...) @error_tok(ptr noundef %8, ptr noundef @.str.101) #9
  unreachable

if.end5:                                          ; preds = %if.end
  %9 = load ptr, ptr %ty, align 8
  %name6 = getelementptr inbounds %struct.Type, ptr %9, i32 0, i32 7
  %10 = load ptr, ptr %name6, align 8
  %call7 = call ptr @get_ident(ptr noundef %10)
  %11 = load ptr, ptr %ty, align 8
  %call8 = call ptr @new_gvar(ptr noundef %call7, ptr noundef %11)
  store ptr %call8, ptr %var, align 8
  %12 = load ptr, ptr %attr.addr, align 8
  %is_extern = getelementptr inbounds %struct.VarAttr, ptr %12, i32 0, i32 2
  %13 = load i8, ptr %is_extern, align 2
  %tobool9 = trunc i8 %13 to i1
  %lnot10 = xor i1 %tobool9, true
  %14 = load ptr, ptr %var, align 8
  %is_definition = getelementptr inbounds %struct.Obj, ptr %14, i32 0, i32 8
  %frombool = zext i1 %lnot10 to i8
  store i8 %frombool, ptr %is_definition, align 1
  %15 = load ptr, ptr %attr.addr, align 8
  %is_static = getelementptr inbounds %struct.VarAttr, ptr %15, i32 0, i32 1
  %16 = load i8, ptr %is_static, align 1
  %tobool11 = trunc i8 %16 to i1
  %17 = load ptr, ptr %var, align 8
  %is_static12 = getelementptr inbounds %struct.Obj, ptr %17, i32 0, i32 9
  %frombool13 = zext i1 %tobool11 to i8
  store i8 %frombool13, ptr %is_static12, align 2
  %18 = load ptr, ptr %attr.addr, align 8
  %is_tls = getelementptr inbounds %struct.VarAttr, ptr %18, i32 0, i32 4
  %19 = load i8, ptr %is_tls, align 4
  %tobool14 = trunc i8 %19 to i1
  %20 = load ptr, ptr %var, align 8
  %is_tls15 = getelementptr inbounds %struct.Obj, ptr %20, i32 0, i32 11
  %frombool16 = zext i1 %tobool14 to i8
  store i8 %frombool16, ptr %is_tls15, align 8
  %21 = load ptr, ptr %attr.addr, align 8
  %align = getelementptr inbounds %struct.VarAttr, ptr %21, i32 0, i32 5
  %22 = load i32, ptr %align, align 4
  %tobool17 = icmp ne i32 %22, 0
  br i1 %tobool17, label %if.then18, label %if.end21

if.then18:                                        ; preds = %if.end5
  %23 = load ptr, ptr %attr.addr, align 8
  %align19 = getelementptr inbounds %struct.VarAttr, ptr %23, i32 0, i32 5
  %24 = load i32, ptr %align19, align 4
  %25 = load ptr, ptr %var, align 8
  %align20 = getelementptr inbounds %struct.Obj, ptr %25, i32 0, i32 5
  store i32 %24, ptr %align20, align 4
  br label %if.end21

if.end21:                                         ; preds = %if.then18, %if.end5
  %26 = load ptr, ptr %tok.addr, align 8
  %call22 = call zeroext i1 @equal(ptr noundef %26, ptr noundef @.str.76)
  br i1 %call22, label %if.then23, label %if.else

if.then23:                                        ; preds = %if.end21
  %27 = load ptr, ptr %tok.addr, align 8
  %next = getelementptr inbounds %struct.Token, ptr %27, i32 0, i32 1
  %28 = load ptr, ptr %next, align 8
  %29 = load ptr, ptr %var, align 8
  call void @gvar_initializer(ptr noundef %tok.addr, ptr noundef %28, ptr noundef %29)
  br label %if.end30

if.else:                                          ; preds = %if.end21
  %30 = load ptr, ptr %attr.addr, align 8
  %is_extern24 = getelementptr inbounds %struct.VarAttr, ptr %30, i32 0, i32 2
  %31 = load i8, ptr %is_extern24, align 2
  %tobool25 = trunc i8 %31 to i1
  br i1 %tobool25, label %if.end29, label %land.lhs.true

land.lhs.true:                                    ; preds = %if.else
  %32 = load ptr, ptr %attr.addr, align 8
  %is_tls26 = getelementptr inbounds %struct.VarAttr, ptr %32, i32 0, i32 4
  %33 = load i8, ptr %is_tls26, align 4
  %tobool27 = trunc i8 %33 to i1
  br i1 %tobool27, label %if.end29, label %if.then28

if.then28:                                        ; preds = %land.lhs.true
  %34 = load ptr, ptr %var, align 8
  %is_tentative = getelementptr inbounds %struct.Obj, ptr %34, i32 0, i32 10
  store i8 1, ptr %is_tentative, align 1
  br label %if.end29

if.end29:                                         ; preds = %if.then28, %land.lhs.true, %if.else
  br label %if.end30

if.end30:                                         ; preds = %if.end29, %if.then23
  br label %while.cond, !llvm.loop !12

while.end:                                        ; preds = %while.cond
  %35 = load ptr, ptr %tok.addr, align 8
  ret ptr %35
}