; Function Attrs: nounwind uwtable
define internal fastcc ptr @global_variable(ptr noundef %tok, ptr noundef %basety, ptr nocapture noundef readonly %attr) unnamed_addr #0 {
entry:
  %head.i = alloca %struct.Relocation, align 8
  %tok.addr = alloca ptr, align 8
  store ptr %tok, ptr %tok.addr, align 8
  %call20 = call zeroext i1 @consume(ptr noundef nonnull %tok.addr, ptr noundef %tok, ptr noundef nonnull @.str.99) #13
  br i1 %call20, label %while.end, label %while.body.lr.ph

while.body.lr.ph:                                 ; preds = %entry
  %is_extern = getelementptr inbounds %struct.VarAttr, ptr %attr, i64 0, i32 2
  %is_static = getelementptr inbounds %struct.VarAttr, ptr %attr, i64 0, i32 1
  %is_tls = getelementptr inbounds %struct.VarAttr, ptr %attr, i64 0, i32 4
  %align = getelementptr inbounds %struct.VarAttr, ptr %attr, i64 0, i32 5
  %.pre = load ptr, ptr %tok.addr, align 8
  %call234 = call fastcc ptr @declarator(ptr noundef nonnull %tok.addr, ptr noundef %.pre, ptr noundef %basety)
  %name35 = getelementptr inbounds %struct.Type, ptr %call234, i64 0, i32 7
  %0 = load ptr, ptr %name35, align 8
  %tobool3.not36 = icmp eq ptr %0, null
  br i1 %tobool3.not36, label %if.then4, label %if.end5

if.then:                                          ; preds = %if.end30
  %1 = load ptr, ptr %tok.addr, align 8
  %call1 = call ptr @skip(ptr noundef %1, ptr noundef nonnull @.str.57) #13
  store ptr %call1, ptr %tok.addr, align 8
  %call2 = call fastcc ptr @declarator(ptr noundef nonnull %tok.addr, ptr noundef %call1, ptr noundef %basety)
  %name = getelementptr inbounds %struct.Type, ptr %call2, i64 0, i32 7
  %2 = load ptr, ptr %name, align 8
  %tobool3.not = icmp eq ptr %2, null
  br i1 %tobool3.not, label %if.then4, label %if.end5

if.then4:                                         ; preds = %if.then, %while.body.lr.ph
  %call2.lcssa = phi ptr [ %call234, %while.body.lr.ph ], [ %call2, %if.then ]
  %name_pos = getelementptr inbounds %struct.Type, ptr %call2.lcssa, i64 0, i32 8
  %3 = load ptr, ptr %name_pos, align 8
  call void (ptr, ptr, ...) @error_tok(ptr noundef %3, ptr noundef nonnull @.str.101) #16
  unreachable

if.end5:                                          ; preds = %while.body.lr.ph, %if.then
  %4 = phi ptr [ %2, %if.then ], [ %0, %while.body.lr.ph ]
  %call237 = phi ptr [ %call2, %if.then ], [ %call234, %while.body.lr.ph ]
  %5 = load i32, ptr %4, align 16
  %cmp.not.i = icmp eq i32 %5, 0
  br i1 %cmp.not.i, label %get_ident.exit, label %if.then.i

if.then.i:                                        ; preds = %if.end5
  call void (ptr, ptr, ...) @error_tok(ptr noundef nonnull %4, ptr noundef nonnull @.str.66) #16
  unreachable

get_ident.exit:                                   ; preds = %if.end5
  %loc.i = getelementptr inbounds %struct.Token, ptr %4, i64 0, i32 4
  %6 = load ptr, ptr %loc.i, align 16
  %len.i = getelementptr inbounds %struct.Token, ptr %4, i64 0, i32 5
  %7 = load i32, ptr %len.i, align 8
  %conv.i = sext i32 %7 to i64
  %call.i = call noalias ptr @strndup(ptr noundef %6, i64 noundef %conv.i) #13
  %call.i.i = call noalias dereferenceable_or_null(144) ptr @calloc(i64 noundef 1, i64 noundef 144) #14
  %name1.i.i = getelementptr inbounds %struct.Obj, ptr %call.i.i, i64 0, i32 1
  store ptr %call.i, ptr %name1.i.i, align 8
  %ty2.i.i = getelementptr inbounds %struct.Obj, ptr %call.i.i, i64 0, i32 2
  store ptr %call237, ptr %ty2.i.i, align 8
  %align.i.i = getelementptr inbounds %struct.Type, ptr %call237, i64 0, i32 2
  %8 = load i32, ptr %align.i.i, align 8
  %align3.i.i = getelementptr inbounds %struct.Obj, ptr %call.i.i, i64 0, i32 5
  store i32 %8, ptr %align3.i.i, align 4
  %call.i.i.i = call noalias dereferenceable_or_null(32) ptr @calloc(i64 noundef 1, i64 noundef 32) #14
  %9 = load ptr, ptr @scope, align 8
  %vars.i.i.i = getelementptr inbounds %struct.Scope, ptr %9, i64 0, i32 1
  call void @hashmap_put(ptr noundef nonnull %vars.i.i.i, ptr noundef %call.i, ptr noundef %call.i.i.i) #13
  store ptr %call.i.i, ptr %call.i.i.i, align 8
  %10 = load ptr, ptr @globals, align 8
  store ptr %10, ptr %call.i.i, align 8
  %is_static.i = getelementptr inbounds %struct.Obj, ptr %call.i.i, i64 0, i32 9
  %is_definition.i = getelementptr inbounds %struct.Obj, ptr %call.i.i, i64 0, i32 8
  store ptr %call.i.i, ptr @globals, align 8
  %11 = load i8, ptr %is_extern, align 2
  %12 = and i8 %11, 1
  %frombool = xor i8 %12, 1
  store i8 %frombool, ptr %is_definition.i, align 1
  %13 = load i8, ptr %is_static, align 1
  %14 = and i8 %13, 1
  store i8 %14, ptr %is_static.i, align 2
  %15 = load i8, ptr %is_tls, align 4
  %16 = and i8 %15, 1
  %is_tls15 = getelementptr inbounds %struct.Obj, ptr %call.i.i, i64 0, i32 11
  store i8 %16, ptr %is_tls15, align 8
  %17 = load i32, ptr %align, align 4
  %tobool17.not = icmp eq i32 %17, 0
  br i1 %tobool17.not, label %if.end21, label %if.then18

if.then18:                                        ; preds = %get_ident.exit
  store i32 %17, ptr %align3.i.i, align 4
  br label %if.end21

if.end21:                                         ; preds = %if.then18, %get_ident.exit
  %18 = load ptr, ptr %tok.addr, align 8
  %call22 = call zeroext i1 @equal(ptr noundef %18, ptr noundef nonnull @.str.76) #13
  br i1 %call22, label %if.then23, label %if.else

if.then23:                                        ; preds = %if.end21
  %19 = load ptr, ptr %tok.addr, align 8
  %next = getelementptr inbounds %struct.Token, ptr %19, i64 0, i32 1
  %20 = load ptr, ptr %next, align 8
  call void @llvm.lifetime.start.p0(i64 32, ptr nonnull %head.i)
  %21 = load ptr, ptr %ty2.i.i, align 8
  %call.i16 = call fastcc ptr @initializer(ptr noundef nonnull %tok.addr, ptr noundef %20, ptr noundef %21, ptr noundef nonnull %ty2.i.i)
  call void @llvm.memset.p0.i64(ptr noundef nonnull align 8 dereferenceable(32) %head.i, i8 0, i64 32, i1 false)
  %22 = load ptr, ptr %ty2.i.i, align 8
  %size.i = getelementptr inbounds %struct.Type, ptr %22, i64 0, i32 1
  %23 = load i32, ptr %size.i, align 4
  %conv.i17 = sext i32 %23 to i64
  %call3.i = call noalias ptr @calloc(i64 noundef 1, i64 noundef %conv.i17) #14
  %call5.i = call fastcc ptr @write_gvar_data(ptr noundef nonnull %head.i, ptr noundef %call.i16, ptr noundef %22, ptr noundef %call3.i, i32 noundef 0)
  %init_data.i = getelementptr inbounds %struct.Obj, ptr %call.i.i, i64 0, i32 12
  store ptr %call3.i, ptr %init_data.i, align 8
  %24 = load ptr, ptr %head.i, align 8
  %rel.i = getelementptr inbounds %struct.Obj, ptr %call.i.i, i64 0, i32 13
  store ptr %24, ptr %rel.i, align 8
  call void @llvm.lifetime.end.p0(i64 32, ptr nonnull %head.i)
  br label %if.end30

if.else:                                          ; preds = %if.end21
  %25 = load i8, ptr %is_extern, align 2
  %26 = and i8 %25, 1
  %tobool25.not = icmp eq i8 %26, 0
  br i1 %tobool25.not, label %land.lhs.true, label %if.end30

land.lhs.true:                                    ; preds = %if.else
  %27 = load i8, ptr %is_tls, align 4
  %28 = and i8 %27, 1
  %tobool27.not = icmp eq i8 %28, 0
  br i1 %tobool27.not, label %if.then28, label %if.end30

if.then28:                                        ; preds = %land.lhs.true
  %is_tentative = getelementptr inbounds %struct.Obj, ptr %call.i.i, i64 0, i32 10
  store i8 1, ptr %is_tentative, align 1
  br label %if.end30

if.end30:                                         ; preds = %if.else, %land.lhs.true, %if.then28, %if.then23
  %29 = load ptr, ptr %tok.addr, align 8
  %call = call zeroext i1 @consume(ptr noundef nonnull %tok.addr, ptr noundef %29, ptr noundef nonnull @.str.99) #13
  br i1 %call, label %while.end, label %if.then, !llvm.loop !20

while.end:                                        ; preds = %if.end30, %entry
  %30 = load ptr, ptr %tok.addr, align 8
  ret ptr %30
}